target datalayout = "e-m:e-p270:32:32-p271:32:32-p272:64:64-i64:64-i128:128-f80:128-n8:16:32:64-S128"
target triple = "x86_64-pc-linux-gnu"

%struct.ScanKeyData = type { i32, i16, i16, i32, i32, %struct.FmgrInfo, i64 }
%struct.FmgrInfo = type { ptr, i32, i16, i8, i8, i8, ptr, ptr, ptr }
%struct.RelationData = type { %struct.RelFileLocator, ptr, i32, i32, i8, i8, i8, i8, i8, i32, i32, i32, i32, ptr, ptr, i32, %struct.LockInfoData, ptr, ptr, ptr, ptr, ptr, i8, ptr, ptr, ptr, ptr, ptr, ptr, i32, ptr, i8, ptr, ptr, i32, i8, i32, ptr, i8, ptr, ptr, ptr, ptr, ptr, ptr, ptr, i32, ptr, ptr, ptr, ptr, ptr, ptr, ptr, ptr, ptr, ptr, ptr, ptr, ptr, ptr, ptr, ptr, ptr, ptr, ptr, i32, i8, ptr }
%struct.RelFileLocator = type { i32, i32, i32 }
%struct.LockInfoData = type { %struct.LockRelId }
%struct.LockRelId = type { i32, i32 }
%struct.nameData = type { [64 x i8] }
%struct.FormData_pg_policy = type { i32, %struct.nameData, i32, i8, i8 }
%struct.HeapTupleData = type { i32, %struct.ItemPointerData, i32, ptr }
%struct.ItemPointerData = type { %struct.BlockIdData, i16 }
%struct.BlockIdData = type { i16, i16 }
%struct.HeapTupleHeaderData = type { %union.anon, %struct.ItemPointerData, i16, i16, i8, [0 x i8] }
%union.anon = type { %struct.HeapTupleFields }
%struct.HeapTupleFields = type { i32, i32, %union.anon.0 }
%union.anon.0 = type { i32 }
%struct.ObjectAddress = type { i32, i32, i32 }
%struct.ArrayType = type { i32, i32, i32, i32 }

@.str.2 = private unnamed_addr constant [9 x i8] c"policy.c\00", align 1
@.str.3 = private unnamed_addr constant [35 x i8] c"could not find tuple for policy %u\00", align 1
@__func__.RemoveRoleFromObjectPolicy = private unnamed_addr constant [27 x i8] c"RemoveRoleFromObjectPolicy\00", align 1
@object_access_hook = external global ptr, align 8

; Function Attrs: inlinehint nounwind uwtable
define internal i32 @DatumGetObjectId(i64 noundef %0) #3 {
  %2 = alloca i64, align 8
  store i64 %0, ptr %2, align 8
  %3 = load i64, ptr %2, align 8
  %4 = trunc i64 %3 to i32
  ret i32 %4
}

; Function Attrs: inlinehint nounwind uwtable
define internal i64 @PointerGetDatum(ptr noundef %0) #3 {
  %2 = alloca ptr, align 8
  store ptr %0, ptr %2, align 8
  %3 = load ptr, ptr %2, align 8
  %4 = ptrtoint ptr %3 to i64
  ret i64 %4
}

; Function Attrs: inlinehint nounwind uwtable
define internal ptr @DatumGetPointer(i64 noundef %0) #3 {
  %2 = alloca i64, align 8
  store i64 %0, ptr %2, align 8
  %3 = load i64, ptr %2, align 8
  %4 = inttoptr i64 %3 to ptr
  ret ptr %4
}

; Function Attrs: inlinehint nounwind uwtable
define internal ptr @GETSTRUCT(ptr noundef %0) #3 {
  %2 = alloca ptr, align 8
  store ptr %0, ptr %2, align 8
  %3 = load ptr, ptr %2, align 8
  %4 = getelementptr inbounds nuw %struct.HeapTupleData, ptr %3, i32 0, i32 3
  %5 = load ptr, ptr %4, align 8
  %6 = load ptr, ptr %2, align 8
  %7 = getelementptr inbounds nuw %struct.HeapTupleData, ptr %6, i32 0, i32 3
  %8 = load ptr, ptr %7, align 8
  %9 = getelementptr inbounds nuw %struct.HeapTupleHeaderData, ptr %8, i32 0, i32 4
  %10 = load i8, ptr %9, align 2
  %11 = zext i8 %10 to i32
  %12 = sext i32 %11 to i64
  %13 = getelementptr inbounds i8, ptr %5, i64 %12
  ret ptr %13
}

; Function Attrs: inlinehint nounwind uwtable
define internal i64 @ObjectIdGetDatum(i32 noundef %0) #3 {
  %2 = alloca i32, align 4
  store i32 %0, ptr %2, align 4
  %3 = load i32, ptr %2, align 4
  %4 = zext i32 %3 to i64
  ret i64 %4
}

; Function Attrs: nounwind uwtable
define dso_local zeroext i1 @RemoveRoleFromObjectPolicy(i32 noundef %0, i32 noundef %1, i32 noundef %2) #0 {
  %4 = alloca i32, align 4
  %5 = alloca i32, align 4
  %6 = alloca i32, align 4
  %7 = alloca ptr, align 8
  %8 = alloca ptr, align 8
  %9 = alloca [1 x %struct.ScanKeyData], align 16
  %10 = alloca ptr, align 8
  %11 = alloca i32, align 4
  %12 = alloca ptr, align 8
  %13 = alloca i64, align 8
  %14 = alloca ptr, align 8
  %15 = alloca i32, align 4
  %16 = alloca ptr, align 8
  %17 = alloca i8, align 1
  %18 = alloca i8, align 1
  %19 = alloca i32, align 4
  %20 = alloca i32, align 4
  %21 = alloca ptr, align 8
  %22 = alloca [8 x i64], align 16
  %23 = alloca [8 x i8], align 1
  %24 = alloca [8 x i8], align 1
  %25 = alloca ptr, align 8
  %26 = alloca ptr, align 8
  %27 = alloca %struct.ObjectAddress, align 4
  %28 = alloca %struct.ObjectAddress, align 4
  store i32 %0, ptr %4, align 4
  store i32 %1, ptr %5, align 4
  store i32 %2, ptr %6, align 4
  call void @llvm.lifetime.start.p0(i64 8, ptr %7) #8
  call void @llvm.lifetime.start.p0(i64 8, ptr %8) #8
  call void @llvm.lifetime.start.p0(i64 72, ptr %9) #8
  call void @llvm.lifetime.start.p0(i64 8, ptr %10) #8
  call void @llvm.lifetime.start.p0(i64 4, ptr %11) #8
  call void @llvm.lifetime.start.p0(i64 8, ptr %12) #8
  call void @llvm.lifetime.start.p0(i64 8, ptr %13) #8
  call void @llvm.lifetime.start.p0(i64 8, ptr %14) #8
  call void @llvm.lifetime.start.p0(i64 4, ptr %15) #8
  call void @llvm.lifetime.start.p0(i64 8, ptr %16) #8
  call void @llvm.lifetime.start.p0(i64 1, ptr %17) #8
  call void @llvm.lifetime.start.p0(i64 1, ptr %18) #8
  store i8 1, ptr %18, align 1
  call void @llvm.lifetime.start.p0(i64 4, ptr %19) #8
  call void @llvm.lifetime.start.p0(i64 4, ptr %20) #8
  %29 = call ptr @table_open(i32 noundef 3256, i32 noundef 3)
  store ptr %29, ptr %7, align 8
  %30 = getelementptr inbounds [1 x %struct.ScanKeyData], ptr %9, i64 0, i64 0
  %31 = load i32, ptr %6, align 4
  %32 = call i64 @ObjectIdGetDatum(i32 noundef %31)
  call void @ScanKeyInit(ptr noundef %30, i16 noundef signext 1, i16 noundef zeroext 3, i32 noundef 184, i64 noundef %32)
  %33 = load ptr, ptr %7, align 8
  %34 = getelementptr inbounds [1 x %struct.ScanKeyData], ptr %9, i64 0, i64 0
  %35 = call ptr @systable_beginscan(ptr noundef %33, i32 noundef 3257, i1 noundef zeroext true, ptr noundef null, i32 noundef 1, ptr noundef %34)
  store ptr %35, ptr %8, align 8
  %36 = load ptr, ptr %8, align 8
  %37 = call ptr @systable_getnext(ptr noundef %36)
  store ptr %37, ptr %10, align 8
  %38 = load ptr, ptr %10, align 8
  %39 = icmp ne ptr %38, null
  br i1 %39, label %52, label %40

40:                                               ; preds = %3
  br label %41

41:                                               ; preds = %40
  br i1 true, label %42, label %44

42:                                               ; preds = %41
  %43 = call zeroext i1 @errstart_cold(i32 noundef 21, ptr noundef null) #9
  br i1 %43, label %46, label %49

44:                                               ; preds = %41
  %45 = call zeroext i1 @errstart(i32 noundef 21, ptr noundef null)
  br i1 %45, label %46, label %49

46:                                               ; preds = %44, %42
  %47 = load i32, ptr %6, align 4
  %48 = call i32 (ptr, ...) @errmsg_internal(ptr noundef @.str.3, i32 noundef %47)
  call void @errfinish(ptr noundef @.str.2, i32 noundef 452, ptr noundef @__func__.RemoveRoleFromObjectPolicy)
  br label %49

49:                                               ; preds = %46, %44, %42
  unreachable

50:                                               ; No predecessors!
  br label %51

51:                                               ; preds = %50
  br label %52

52:                                               ; preds = %51, %3
  %53 = load ptr, ptr %10, align 8
  %54 = call ptr @GETSTRUCT(ptr noundef %53)
  %55 = getelementptr inbounds nuw %struct.FormData_pg_policy, ptr %54, i32 0, i32 2
  %56 = load i32, ptr %55, align 4
  store i32 %56, ptr %11, align 4
  %57 = load ptr, ptr %10, align 8
  %58 = load ptr, ptr %7, align 8
  %59 = getelementptr inbounds nuw %struct.RelationData, ptr %58, i32 0, i32 14
  %60 = load ptr, ptr %59, align 8
  %61 = call i64 @heap_getattr(ptr noundef %57, i32 noundef 6, ptr noundef %60, ptr noundef %17)
  store i64 %61, ptr %13, align 8
  %62 = load i64, ptr %13, align 8
  %63 = call ptr @DatumGetPointer(i64 noundef %62)
  %64 = call ptr @pg_detoast_datum_copy(ptr noundef %63)
  store ptr %64, ptr %12, align 8
  %65 = load ptr, ptr %12, align 8
  %66 = load ptr, ptr %12, align 8
  %67 = getelementptr inbounds nuw %struct.ArrayType, ptr %66, i32 0, i32 2
  %68 = load i32, ptr %67, align 4
  %69 = icmp ne i32 %68, 0
  br i1 %69, label %70, label %75

70:                                               ; preds = %52
  %71 = load ptr, ptr %12, align 8
  %72 = getelementptr inbounds nuw %struct.ArrayType, ptr %71, i32 0, i32 2
  %73 = load i32, ptr %72, align 4
  %74 = sext i32 %73 to i64
  br label %84

75:                                               ; preds = %52
  %76 = load ptr, ptr %12, align 8
  %77 = getelementptr inbounds nuw %struct.ArrayType, ptr %76, i32 0, i32 1
  %78 = load i32, ptr %77, align 4
  %79 = sext i32 %78 to i64
  %80 = mul i64 8, %79
  %81 = add i64 16, %80
  %82 = add i64 %81, 7
  %83 = and i64 %82, -8
  br label %84

84:                                               ; preds = %75, %70
  %85 = phi i64 [ %74, %70 ], [ %83, %75 ]
  %86 = getelementptr inbounds nuw i8, ptr %65, i64 %85
  store ptr %86, ptr %14, align 8
  %87 = load ptr, ptr %12, align 8
  %88 = getelementptr inbounds nuw i8, ptr %87, i64 16
  %89 = getelementptr inbounds i32, ptr %88, i64 0
  %90 = load i32, ptr %89, align 4
  store i32 %90, ptr %15, align 4
  %91 = load i32, ptr %15, align 4
  %92 = sext i32 %91 to i64
  %93 = mul i64 %92, 8
  %94 = call ptr @palloc(i64 noundef %93)
  store ptr %94, ptr %16, align 8
  store i32 0, ptr %19, align 4
  store i32 0, ptr %20, align 4
  br label %95

95:                                               ; preds = %120, %84
  %96 = load i32, ptr %19, align 4
  %97 = load i32, ptr %15, align 4
  %98 = icmp slt i32 %96, %97
  br i1 %98, label %99, label %123

99:                                               ; preds = %95
  %100 = load ptr, ptr %14, align 8
  %101 = load i32, ptr %19, align 4
  %102 = sext i32 %101 to i64
  %103 = getelementptr inbounds i32, ptr %100, i64 %102
  %104 = load i32, ptr %103, align 4
  %105 = load i32, ptr %4, align 4
  %106 = icmp ne i32 %104, %105
  br i1 %106, label %107, label %119

107:                                              ; preds = %99
  %108 = load ptr, ptr %14, align 8
  %109 = load i32, ptr %19, align 4
  %110 = sext i32 %109 to i64
  %111 = getelementptr inbounds i32, ptr %108, i64 %110
  %112 = load i32, ptr %111, align 4
  %113 = call i64 @ObjectIdGetDatum(i32 noundef %112)
  %114 = load ptr, ptr %16, align 8
  %115 = load i32, ptr %20, align 4
  %116 = add i32 %115, 1
  store i32 %116, ptr %20, align 4
  %117 = sext i32 %115 to i64
  %118 = getelementptr inbounds i64, ptr %114, i64 %117
  store i64 %113, ptr %118, align 8
  br label %119

119:                                              ; preds = %107, %99
  br label %120

120:                                              ; preds = %119
  %121 = load i32, ptr %19, align 4
  %122 = add i32 %121, 1
  store i32 %122, ptr %19, align 4
  br label %95, !llvm.loop !8

123:                                              ; preds = %95
  %124 = load i32, ptr %20, align 4
  store i32 %124, ptr %15, align 4
  %125 = load i32, ptr %15, align 4
  %126 = icmp sgt i32 %125, 0
  br i1 %126, label %127, label %196

127:                                              ; preds = %123
  call void @llvm.lifetime.start.p0(i64 8, ptr %21) #8
  call void @llvm.lifetime.start.p0(i64 64, ptr %22) #8
  call void @llvm.lifetime.start.p0(i64 8, ptr %23) #8
  call void @llvm.lifetime.start.p0(i64 8, ptr %24) #8
  call void @llvm.lifetime.start.p0(i64 8, ptr %25) #8
  call void @llvm.lifetime.start.p0(i64 8, ptr %26) #8
  call void @llvm.lifetime.start.p0(i64 12, ptr %27) #8
  call void @llvm.lifetime.start.p0(i64 12, ptr %28) #8
  %128 = getelementptr inbounds [8 x i64], ptr %22, i64 0, i64 0
  call void @llvm.memset.p0.i64(ptr align 16 %128, i8 0, i64 64, i1 false)
  %129 = getelementptr inbounds [8 x i8], ptr %24, i64 0, i64 0
  call void @llvm.memset.p0.i64(ptr align 1 %129, i8 0, i64 8, i1 false)
  %130 = getelementptr inbounds [8 x i8], ptr %23, i64 0, i64 0
  call void @llvm.memset.p0.i64(ptr align 1 %130, i8 0, i64 8, i1 false)
  %131 = load ptr, ptr %16, align 8
  %132 = load i32, ptr %15, align 4
  %133 = call ptr @construct_array_builtin(ptr noundef %131, i32 noundef %132, i32 noundef 26)
  store ptr %133, ptr %21, align 8
  %134 = getelementptr inbounds [8 x i8], ptr %24, i64 0, i64 5
  store i8 1, ptr %134, align 1
  %135 = load ptr, ptr %21, align 8
  %136 = call i64 @PointerGetDatum(ptr noundef %135)
  %137 = getelementptr inbounds [8 x i64], ptr %22, i64 0, i64 5
  store i64 %136, ptr %137, align 8
  %138 = load ptr, ptr %10, align 8
  %139 = load ptr, ptr %7, align 8
  %140 = getelementptr inbounds nuw %struct.RelationData, ptr %139, i32 0, i32 14
  %141 = load ptr, ptr %140, align 8
  %142 = getelementptr inbounds [8 x i64], ptr %22, i64 0, i64 0
  %143 = getelementptr inbounds [8 x i8], ptr %23, i64 0, i64 0
  %144 = getelementptr inbounds [8 x i8], ptr %24, i64 0, i64 0
  %145 = call ptr @heap_modify_tuple(ptr noundef %138, ptr noundef %141, ptr noundef %142, ptr noundef %143, ptr noundef %144)
  store ptr %145, ptr %25, align 8
  %146 = load ptr, ptr %7, align 8
  %147 = load ptr, ptr %25, align 8
  %148 = getelementptr inbounds nuw %struct.HeapTupleData, ptr %147, i32 0, i32 1
  %149 = load ptr, ptr %25, align 8
  call void @CatalogTupleUpdate(ptr noundef %146, ptr noundef %148, ptr noundef %149)
  %150 = load i32, ptr %6, align 4
  call void @deleteSharedDependencyRecordsFor(i32 noundef 3256, i32 noundef %150, i32 noundef 0)
  %151 = getelementptr inbounds nuw %struct.ObjectAddress, ptr %28, i32 0, i32 0
  store i32 3256, ptr %151, align 4
  %152 = load i32, ptr %6, align 4
  %153 = getelementptr inbounds nuw %struct.ObjectAddress, ptr %28, i32 0, i32 1
  store i32 %152, ptr %153, align 4
  %154 = getelementptr inbounds nuw %struct.ObjectAddress, ptr %28, i32 0, i32 2
  store i32 0, ptr %154, align 4
  %155 = getelementptr inbounds nuw %struct.ObjectAddress, ptr %27, i32 0, i32 0
  store i32 1260, ptr %155, align 4
  %156 = getelementptr inbounds nuw %struct.ObjectAddress, ptr %27, i32 0, i32 2
  store i32 0, ptr %156, align 4
  store i32 0, ptr %19, align 4
  br label %157

157:                                              ; preds = %174, %127
  %158 = load i32, ptr %19, align 4
  %159 = load i32, ptr %15, align 4
  %160 = icmp slt i32 %158, %159
  br i1 %160, label %161, label %177

161:                                              ; preds = %157
  %162 = load ptr, ptr %16, align 8
  %163 = load i32, ptr %19, align 4
  %164 = sext i32 %163 to i64
  %165 = getelementptr inbounds i64, ptr %162, i64 %164
  %166 = load i64, ptr %165, align 8
  %167 = call i32 @DatumGetObjectId(i64 noundef %166)
  %168 = getelementptr inbounds nuw %struct.ObjectAddress, ptr %27, i32 0, i32 1
  store i32 %167, ptr %168, align 4
  %169 = getelementptr inbounds nuw %struct.ObjectAddress, ptr %27, i32 0, i32 1
  %170 = load i32, ptr %169, align 4
  %171 = icmp ne i32 %170, 0
  br i1 %171, label %172, label %173

172:                                              ; preds = %161
  call void @recordSharedDependencyOn(ptr noundef %28, ptr noundef %27, i32 noundef 114)
  br label %173

173:                                              ; preds = %172, %161
  br label %174

174:                                              ; preds = %173
  %175 = load i32, ptr %19, align 4
  %176 = add i32 %175, 1
  store i32 %176, ptr %19, align 4
  br label %157, !llvm.loop !9

177:                                              ; preds = %157
  br label %178

178:                                              ; preds = %177
  %179 = load ptr, ptr @object_access_hook, align 8
  %180 = icmp ne ptr %179, null
  br i1 %180, label %181, label %183

181:                                              ; preds = %178
  %182 = load i32, ptr %6, align 4
  call void @RunObjectPostAlterHook(i32 noundef 3256, i32 noundef %182, i32 noundef 0, i32 noundef 0, i1 noundef zeroext false)
  br label %183

183:                                              ; preds = %181, %178
  br label %184

184:                                              ; preds = %183
  br label %185

185:                                              ; preds = %184
  %186 = load ptr, ptr %25, align 8
  call void @heap_freetuple(ptr noundef %186)
  call void @CommandCounterIncrement()
  %187 = load i32, ptr %11, align 4
  %188 = call i64 @ObjectIdGetDatum(i32 noundef %187)
  %189 = call ptr @SearchSysCache1(i32 noundef 57, i64 noundef %188)
  store ptr %189, ptr %26, align 8
  %190 = load ptr, ptr %26, align 8
  %191 = icmp ne ptr %190, null
  br i1 %191, label %192, label %195

192:                                              ; preds = %185
  %193 = load ptr, ptr %26, align 8
  call void @CacheInvalidateRelcacheByTuple(ptr noundef %193)
  %194 = load ptr, ptr %26, align 8
  call void @ReleaseSysCache(ptr noundef %194)
  br label %195

195:                                              ; preds = %192, %185
  call void @llvm.lifetime.end.p0(i64 12, ptr %28) #8
  call void @llvm.lifetime.end.p0(i64 12, ptr %27) #8
  call void @llvm.lifetime.end.p0(i64 8, ptr %26) #8
  call void @llvm.lifetime.end.p0(i64 8, ptr %25) #8
  call void @llvm.lifetime.end.p0(i64 8, ptr %24) #8
  call void @llvm.lifetime.end.p0(i64 8, ptr %23) #8
  call void @llvm.lifetime.end.p0(i64 64, ptr %22) #8
  call void @llvm.lifetime.end.p0(i64 8, ptr %21) #8
  br label %197

196:                                              ; preds = %123
  store i8 0, ptr %18, align 1
  br label %197

197:                                              ; preds = %196, %195
  %198 = load ptr, ptr %8, align 8
  call void @systable_endscan(ptr noundef %198)
  %199 = load ptr, ptr %7, align 8
  call void @table_close(ptr noundef %199, i32 noundef 3)
  %200 = load i8, ptr %18, align 1, !range !4, !noundef !5
  %201 = trunc i8 %200 to i1
  call void @llvm.lifetime.end.p0(i64 4, ptr %20) #8
  call void @llvm.lifetime.end.p0(i64 4, ptr %19) #8
  call void @llvm.lifetime.end.p0(i64 1, ptr %18) #8
  call void @llvm.lifetime.end.p0(i64 1, ptr %17) #8
  call void @llvm.lifetime.end.p0(i64 8, ptr %16) #8
  call void @llvm.lifetime.end.p0(i64 4, ptr %15) #8
  call void @llvm.lifetime.end.p0(i64 8, ptr %14) #8
  call void @llvm.lifetime.end.p0(i64 8, ptr %13) #8
  call void @llvm.lifetime.end.p0(i64 8, ptr %12) #8
  call void @llvm.lifetime.end.p0(i64 4, ptr %11) #8
  call void @llvm.lifetime.end.p0(i64 8, ptr %10) #8
  call void @llvm.lifetime.end.p0(i64 72, ptr %9) #8
  call void @llvm.lifetime.end.p0(i64 8, ptr %8) #8
  call void @llvm.lifetime.end.p0(i64 8, ptr %7) #8
  ret i1 %201
}