; Function Attrs: nounwind uwtable
define dso_local noundef zeroext i1 @RemoveRoleFromObjectPolicy(i32 noundef %0, i32 noundef %1, i32 noundef %2) local_unnamed_addr #0 {
  %4 = alloca [1 x %struct.ScanKeyData], align 16
  %5 = alloca i8, align 1
  %6 = alloca [8 x i64], align 16
  %7 = alloca [8 x i8], align 8
  %8 = alloca [8 x i8], align 8
  %9 = alloca %struct.ObjectAddress, align 4
  %10 = alloca %struct.ObjectAddress, align 4
  call void @llvm.lifetime.start.p0(i64 72, ptr nonnull %4) #8
  call void @llvm.lifetime.start.p0(i64 1, ptr nonnull %5) #8
  %11 = tail call ptr @table_open(i32 noundef 3256, i32 noundef 3) #8
  %12 = zext i32 %2 to i64
  call void @ScanKeyInit(ptr noundef nonnull %4, i16 noundef signext 1, i16 noundef zeroext 3, i32 noundef 184, i64 noundef %12) #8
  %13 = call ptr @systable_beginscan(ptr noundef %11, i32 noundef 3257, i1 noundef zeroext true, ptr noundef null, i32 noundef 1, ptr noundef nonnull %4) #8
  %14 = call ptr @systable_getnext(ptr noundef %13) #8
  %.not = icmp eq ptr %14, null
  br i1 %.not, label %15, label %18

15:                                               ; preds = %3
  %16 = call zeroext i1 @errstart_cold(i32 noundef 21, ptr noundef null) #9
  call void @llvm.assume(i1 %16)
  %17 = call i32 (ptr, ...) @errmsg_internal(ptr noundef nonnull @.str.3, i32 noundef %2) #8
  call void @errfinish(ptr noundef nonnull @.str.2, i32 noundef 452, ptr noundef nonnull @__func__.RemoveRoleFromObjectPolicy) #8
  unreachable

18:                                               ; preds = %3
  %19 = getelementptr i8, ptr %14, i64 16
  %.val = load ptr, ptr %19, align 8
  %20 = getelementptr inbounds nuw i8, ptr %.val, i64 22
  %21 = load i8, ptr %20, align 2
  %22 = zext i8 %21 to i64
  %23 = getelementptr inbounds nuw i8, ptr %.val, i64 %22
  %24 = getelementptr inbounds nuw i8, ptr %23, i64 68
  %25 = load i32, ptr %24, align 4
  %26 = getelementptr inbounds nuw i8, ptr %11, i64 64
  %27 = load ptr, ptr %26, align 8
  %28 = call fastcc i64 @heap_getattr(ptr noundef %14, i32 noundef 6, ptr noundef %27, ptr noundef %5)
  %29 = inttoptr i64 %28 to ptr
  %30 = call ptr @pg_detoast_datum_copy(ptr noundef %29) #8
  %31 = getelementptr inbounds nuw i8, ptr %30, i64 8
  %32 = load i32, ptr %31, align 4
  %.not57 = icmp eq i32 %32, 0
  br i1 %.not57, label %35, label %33

33:                                               ; preds = %18
  %34 = sext i32 %32 to i64
  br label %42

35:                                               ; preds = %18
  %36 = getelementptr inbounds nuw i8, ptr %30, i64 4
  %37 = load i32, ptr %36, align 4
  %38 = sext i32 %37 to i64
  %39 = shl nsw i64 %38, 3
  %40 = add nsw i64 %39, 23
  %41 = and i64 %40, -8
  br label %42

42:                                               ; preds = %35, %33
  %43 = phi i64 [ %34, %33 ], [ %41, %35 ]
  %44 = getelementptr inbounds nuw i8, ptr %30, i64 %43
  %45 = getelementptr inbounds nuw i8, ptr %30, i64 16
  %46 = load i32, ptr %45, align 4
  %47 = sext i32 %46 to i64
  %48 = shl nsw i64 %47, 3
  %49 = call ptr @palloc(i64 noundef %48) #8
  %50 = icmp sgt i32 %46, 0
  br i1 %50, label %.lr.ph.preheader, label %._crit_edge.thread

.lr.ph.preheader:                                 ; preds = %42
  %wide.trip.count = zext nneg i32 %46 to i64
  br label %.lr.ph

.lr.ph:                                           ; preds = %.lr.ph.preheader, %58
  %indvars.iv = phi i64 [ 0, %.lr.ph.preheader ], [ %indvars.iv.next, %58 ]
  %.05162 = phi i32 [ 0, %.lr.ph.preheader ], [ %.152, %58 ]
  %51 = getelementptr inbounds nuw i32, ptr %44, i64 %indvars.iv
  %52 = load i32, ptr %51, align 4
  %.not61 = icmp eq i32 %52, %0
  br i1 %.not61, label %58, label %53

53:                                               ; preds = %.lr.ph
  %54 = zext i32 %52 to i64
  %55 = add i32 %.05162, 1
  %56 = sext i32 %.05162 to i64
  %57 = getelementptr inbounds i64, ptr %49, i64 %56
  store i64 %54, ptr %57, align 8
  br label %58

58:                                               ; preds = %.lr.ph, %53
  %.152 = phi i32 [ %55, %53 ], [ %.05162, %.lr.ph ]
  %indvars.iv.next = add nuw nsw i64 %indvars.iv, 1
  %exitcond.not = icmp eq i64 %indvars.iv.next, %wide.trip.count
  br i1 %exitcond.not, label %._crit_edge, label %.lr.ph, !llvm.loop !8

._crit_edge:                                      ; preds = %58
  %59 = icmp sgt i32 %.152, 0
  br i1 %59, label %60, label %._crit_edge.thread

60:                                               ; preds = %._crit_edge
  call void @llvm.lifetime.start.p0(i64 64, ptr nonnull %6) #8
  call void @llvm.lifetime.start.p0(i64 8, ptr nonnull %7) #8
  call void @llvm.lifetime.start.p0(i64 8, ptr nonnull %8) #8
  call void @llvm.lifetime.start.p0(i64 12, ptr nonnull %9) #8
  call void @llvm.lifetime.start.p0(i64 12, ptr nonnull %10) #8
  call void @llvm.memset.p0.i64(ptr noundef nonnull align 16 dereferenceable(64) %6, i8 0, i64 64, i1 false)
  store i64 1099511627776, ptr %8, align 8
  store i64 0, ptr %7, align 8
  %61 = call ptr @construct_array_builtin(ptr noundef %49, i32 noundef %.152, i32 noundef 26) #8
  %62 = ptrtoint ptr %61 to i64
  %63 = getelementptr inbounds nuw i8, ptr %6, i64 40
  store i64 %62, ptr %63, align 8
  %64 = load ptr, ptr %26, align 8
  %65 = call ptr @heap_modify_tuple(ptr noundef nonnull %14, ptr noundef %64, ptr noundef nonnull %6, ptr noundef nonnull %7, ptr noundef nonnull %8) #8
  %66 = getelementptr inbounds nuw i8, ptr %65, i64 4
  call void @CatalogTupleUpdate(ptr noundef %11, ptr noundef nonnull %66, ptr noundef %65) #8
  call void @deleteSharedDependencyRecordsFor(i32 noundef 3256, i32 noundef %2, i32 noundef 0) #8
  store i32 3256, ptr %10, align 4
  %67 = getelementptr inbounds nuw i8, ptr %10, i64 4
  store i32 %2, ptr %67, align 4
  %68 = getelementptr inbounds nuw i8, ptr %10, i64 8
  store i32 0, ptr %68, align 4
  store i32 1260, ptr %9, align 4
  %69 = getelementptr inbounds nuw i8, ptr %9, i64 8
  store i32 0, ptr %69, align 4
  %70 = getelementptr inbounds nuw i8, ptr %9, i64 4
  %wide.trip.count69 = zext nneg i32 %.152 to i64
  br label %71

71:                                               ; preds = %60, %76
  %indvars.iv66 = phi i64 [ 0, %60 ], [ %indvars.iv.next67, %76 ]
  %72 = getelementptr inbounds nuw i64, ptr %49, i64 %indvars.iv66
  %73 = load i64, ptr %72, align 8
  %74 = trunc i64 %73 to i32
  store i32 %74, ptr %70, align 4
  %.not60 = icmp eq i32 %74, 0
  br i1 %.not60, label %76, label %75

75:                                               ; preds = %71
  call void @recordSharedDependencyOn(ptr noundef nonnull %10, ptr noundef nonnull %9, i32 noundef 114) #8
  br label %76

76:                                               ; preds = %71, %75
  %indvars.iv.next67 = add nuw nsw i64 %indvars.iv66, 1
  %exitcond70.not = icmp eq i64 %indvars.iv.next67, %wide.trip.count69
  br i1 %exitcond70.not, label %77, label %71, !llvm.loop !9

77:                                               ; preds = %76
  %78 = load ptr, ptr @object_access_hook, align 8
  %.not58 = icmp eq ptr %78, null
  br i1 %.not58, label %80, label %79

79:                                               ; preds = %77
  call void @RunObjectPostAlterHook(i32 noundef 3256, i32 noundef %2, i32 noundef 0, i32 noundef 0, i1 noundef zeroext false) #8
  br label %80

80:                                               ; preds = %79, %77
  call void @heap_freetuple(ptr noundef %65) #8
  call void @CommandCounterIncrement() #8
  %81 = zext i32 %25 to i64
  %82 = call ptr @SearchSysCache1(i32 noundef 57, i64 noundef %81) #8
  %.not59 = icmp eq ptr %82, null
  br i1 %.not59, label %84, label %83

83:                                               ; preds = %80
  call void @CacheInvalidateRelcacheByTuple(ptr noundef nonnull %82) #8
  call void @ReleaseSysCache(ptr noundef nonnull %82) #8
  br label %84

84:                                               ; preds = %83, %80
  call void @llvm.lifetime.end.p0(i64 12, ptr nonnull %10) #8
  call void @llvm.lifetime.end.p0(i64 12, ptr nonnull %9) #8
  call void @llvm.lifetime.end.p0(i64 8, ptr nonnull %8) #8
  call void @llvm.lifetime.end.p0(i64 8, ptr nonnull %7) #8
  call void @llvm.lifetime.end.p0(i64 64, ptr nonnull %6) #8
  br label %._crit_edge.thread

._crit_edge.thread:                               ; preds = %42, %._crit_edge, %84
  %85 = phi i1 [ false, %._crit_edge ], [ true, %84 ], [ false, %42 ]
  call void @systable_endscan(ptr noundef %13) #8
  call void @table_close(ptr noundef %11, i32 noundef 3) #8
  call void @llvm.lifetime.end.p0(i64 1, ptr nonnull %5) #8
  call void @llvm.lifetime.end.p0(i64 72, ptr nonnull %4) #8
  ret i1 %85
}